target datalayout = "e-m:e-p270:32:32-p271:32:32-p272:64:64-i64:64-i128:128-f80:128-n8:16:32:64-S128"
target triple = "x86_64-pc-linux-gnu"

; Function Attrs: nounwind uwtable
define ptr @Extra_bddCreateOr(ptr noundef %0, i32 noundef %1) #0 {
  %3 = alloca ptr, align 8
  %4 = alloca i32, align 4
  %5 = alloca ptr, align 8
  %6 = alloca ptr, align 8
  %7 = alloca i32, align 4
  store ptr %0, ptr %3, align 8, !tbaa !3
  store i32 %1, ptr %4, align 4, !tbaa !37
  call void @llvm.lifetime.start.p0(i64 8, ptr %5) #10
  call void @llvm.lifetime.start.p0(i64 8, ptr %6) #10
  call void @llvm.lifetime.start.p0(i64 4, ptr %7) #10
  %8 = load ptr, ptr %3, align 8, !tbaa !3
  %9 = call ptr @Cudd_ReadLogicZero(ptr noundef %8)
  store ptr %9, ptr %5, align 8, !tbaa !8
  %10 = load ptr, ptr %5, align 8, !tbaa !8
  call void @Cudd_Ref(ptr noundef %10)
  store i32 0, ptr %7, align 4, !tbaa !37
  br label %11

11:                                               ; preds = %25, %2
  %12 = load i32, ptr %7, align 4, !tbaa !37
  %13 = load i32, ptr %4, align 4, !tbaa !37
  %14 = icmp slt i32 %12, %13
  br i1 %14, label %15, label %28

15:                                               ; preds = %11
  %16 = load ptr, ptr %3, align 8, !tbaa !3
  %17 = load ptr, ptr %5, align 8, !tbaa !8
  store ptr %17, ptr %6, align 8, !tbaa !8
  %18 = load ptr, ptr %3, align 8, !tbaa !3
  %19 = load i32, ptr %7, align 4, !tbaa !37
  %20 = call ptr @Cudd_bddIthVar(ptr noundef %18, i32 noundef %19)
  %21 = call ptr @Cudd_bddOr(ptr noundef %16, ptr noundef %17, ptr noundef %20)
  store ptr %21, ptr %5, align 8, !tbaa !8
  %22 = load ptr, ptr %5, align 8, !tbaa !8
  call void @Cudd_Ref(ptr noundef %22)
  %23 = load ptr, ptr %3, align 8, !tbaa !3
  %24 = load ptr, ptr %6, align 8, !tbaa !8
  call void @Cudd_RecursiveDeref(ptr noundef %23, ptr noundef %24)
  br label %25

25:                                               ; preds = %15
  %26 = load i32, ptr %7, align 4, !tbaa !37
  %27 = add nsw i32 %26, 1
  store i32 %27, ptr %7, align 4, !tbaa !37
  br label %11, !llvm.loop !73

28:                                               ; preds = %11
  %29 = load ptr, ptr %5, align 8, !tbaa !8
  call void @Cudd_Deref(ptr noundef %29)
  %30 = load ptr, ptr %5, align 8, !tbaa !8
  call void @llvm.lifetime.end.p0(i64 4, ptr %7) #10
  call void @llvm.lifetime.end.p0(i64 8, ptr %6) #10
  call void @llvm.lifetime.end.p0(i64 8, ptr %5) #10
  ret ptr %30
}